   1              		.cpu cortex-m0plus
   2              		.fpu softvfp
   3              		.eabi_attribute 20, 1
   4              		.eabi_attribute 21, 1
   5              		.eabi_attribute 23, 3
   6              		.eabi_attribute 24, 1
   7              		.eabi_attribute 25, 1
   8              		.eabi_attribute 26, 1
   9              		.eabi_attribute 30, 4
  10              		.eabi_attribute 34, 0
  11              		.eabi_attribute 18, 4
  12              		.code	16
  13              		.file	"board_init.c"
  14              		.section	.text.waitForDFLL,"ax",%progbits
  15              		.align	1
  16              		.global	waitForDFLL
  17              		.code	16
  18              		.thumb_func
  20              	waitForDFLL:
  21              	.L3:
  22 0000 024B     		ldr	r3, .L5
  23 0002 DB68     		ldr	r3, [r3, #12]
  24 0004 DA05     		lsl	r2, r3, #23
  25 0006 FBD5     		bpl	.L3
  26              		@ sp needed
  27 0008 7047     		bx	lr
  28              	.L6:
  29 000a C046     		.align	2
  30              	.L5:
  31 000c 000C0040 		.word	1073744896
  33              		.section	.text.waitForPLL,"ax",%progbits
  34              		.align	1
  35              		.global	waitForPLL
  36              		.code	16
  37              		.thumb_func
  39              	waitForPLL:
  40              	.L9:
  41 0000 024B     		ldr	r3, .L10
  42 0002 1A78     		ldrb	r2, [r3]
  43 0004 0E23     		mov	r3, #14
  44 0006 1A42     		tst	r2, r3
  45 0008 FAD1     		bne	.L9
  46              		@ sp needed
  47 000a 7047     		bx	lr
  48              	.L11:
  49              		.align	2
  50              	.L10:
  51 000c 380C0040 		.word	1073744952
  53              		.section	.text.board_init,"ax",%progbits
  54              		.align	1
  55              		.global	board_init
  56              		.code	16
  57              		.thumb_func
  59              	board_init:
  60 0000 70B5     		push	{r4, r5, r6, lr}
  61 0002 2D4B     		ldr	r3, .L27
  62 0004 8021     		mov	r1, #128
  63 0006 5A68     		ldr	r2, [r3, #4]
  64 0008 2C4D     		ldr	r5, .L27+4
  65 000a 0A43     		orr	r2, r1
  66 000c 5A60     		str	r2, [r3, #4]
  67 000e 5A68     		ldr	r2, [r3, #4]
  68 0010 0421     		mov	r1, #4
  69 0012 0A43     		orr	r2, r1
  70 0014 5A60     		str	r2, [r3, #4]
  71 0016 6B69     		ldr	r3, [r5, #20]
  72 0018 4022     		mov	r2, #64
  73 001a 1343     		orr	r3, r2
  74 001c 6B61     		str	r3, [r5, #20]
  75 001e 8023     		mov	r3, #128
  76 0020 DB05     		lsl	r3, r3, #23
  77 0022 0122     		mov	r2, #1
  78 0024 9A71     		strb	r2, [r3, #6]
  79 0026 9A78     		ldrb	r2, [r3, #2]
  80 0028 0221     		mov	r1, #2
  81 002a 0A43     		orr	r2, r1
  82 002c 9A70     		strb	r2, [r3, #2]
  83              	.L14:
  84 002e 9979     		ldrb	r1, [r3, #6]
  85 0030 0122     		mov	r2, #1
  86 0032 1142     		tst	r1, r2
  87 0034 FBD0     		beq	.L14
  88 0036 8023     		mov	r3, #128
  89 0038 214C     		ldr	r4, .L27+8
  90 003a DB05     		lsl	r3, r3, #23
  91 003c 9A71     		strb	r2, [r3, #6]
  92 003e 2270     		strb	r2, [r4]
  93              	.L16:
  94 0040 2378     		ldrb	r3, [r4]
  95 0042 D907     		lsl	r1, r3, #31
  96 0044 04D5     		bpl	.L15
  97 0046 1E4B     		ldr	r3, .L27+8
  98 0048 5A68     		ldr	r2, [r3, #4]
  99 004a 1E4B     		ldr	r3, .L27+12
 100 004c 1A42     		tst	r2, r3
 101 004e F7D1     		bne	.L16
 102              	.L15:
 103 0050 1D4B     		ldr	r3, .L27+16
 104 0052 1E4A     		ldr	r2, .L27+20
 105 0054 0221     		mov	r1, #2
 106 0056 5A61     		str	r2, [r3, #20]
 107 0058 5A69     		ldr	r2, [r3, #20]
 108 005a 0A43     		orr	r2, r1
 109 005c 5A61     		str	r2, [r3, #20]
 110              	.L18:
 111 005e DA68     		ldr	r2, [r3, #12]
 112 0060 D107     		lsl	r1, r2, #31
 113 0062 FCD5     		bpl	.L18
 114 0064 1A4B     		ldr	r3, .L27+24
 115 0066 1B4E     		ldr	r6, .L27+28
 116 0068 F362     		str	r3, [r6, #44]
 117 006a FFF7FEFF 		bl	waitForPLL
 118 006e 1A4A     		ldr	r2, .L27+32
 119 0070 0023     		mov	r3, #0
 120 0072 3363     		str	r3, [r6, #48]
 121 0074 1370     		strb	r3, [r2]
 122 0076 FFF7FEFF 		bl	waitForPLL
 123 007a 184B     		ldr	r3, .L27+36
 124 007c 0222     		mov	r2, #2
 125 007e 1A70     		strb	r2, [r3]
 126 0080 FFF7FEFF 		bl	waitForPLL
 127              	.L20:
 128 0084 164B     		ldr	r3, .L27+40
 129 0086 134E     		ldr	r6, .L27+28
 130 0088 1B78     		ldrb	r3, [r3]
 131 008a 9A07     		lsl	r2, r3, #30
 132 008c FAD5     		bpl	.L20
 133 008e 154B     		ldr	r3, .L27+44
 134              		@ sp needed
 135 0090 2362     		str	r3, [r4, #32]
 136 0092 FFF7FEFF 		bl	waitForSync
 137 0096 337D     		ldrb	r3, [r6, #20]
 138 0098 0C22     		mov	r2, #12
 139 009a 9343     		bic	r3, r2
 140 009c 0422     		mov	r2, #4
 141 009e 1343     		orr	r3, r2
 142 00a0 3375     		strb	r3, [r6, #20]
 143 00a2 114B     		ldr	r3, .L27+48
 144 00a4 E362     		str	r3, [r4, #44]
 145 00a6 FFF7FEFF 		bl	waitForSync
 146 00aa 104B     		ldr	r3, .L27+52
 147 00ac 104A     		ldr	r2, .L27+56
 148 00ae 1A60     		str	r2, [r3]
 149 00b0 0123     		mov	r3, #1
 150 00b2 2B71     		strb	r3, [r5, #4]
 151 00b4 70BD     		pop	{r4, r5, r6, pc}
 152              	.L28:
 153 00b6 C046     		.align	2
 154              	.L27:
 155 00b8 00400041 		.word	1090535424
 156 00bc 00040040 		.word	1073742848
 157 00c0 00180040 		.word	1073747968
 158 00c4 FD070000 		.word	2045
 159 00c8 00100040 		.word	1073745920
 160 00cc 1C040000 		.word	1052
 161 00d0 710B0000 		.word	2929
 162 00d4 000C0040 		.word	1073744896
 163 00d8 340C0040 		.word	1073744948
 164 00dc 280C0040 		.word	1073744936
 165 00e0 3C0C0040 		.word	1073744956
 166 00e4 08030200 		.word	131848
 167 00e8 06010100 		.word	65798
 168 00ec 00000000 		.word	SystemCoreClock
 169 00f0 006CDC02 		.word	48000000
 171              		.ident	"GCC: (GNU Tools for ARM Embedded Processors) 4.8.3 20140228 (release) [ARM/embedded-4_8-br
DEFINED SYMBOLS
                            *ABS*:00000000 board_init.c
C:\Users\Jelle\AppData\Local\Temp\ccRxPJuc.s:15     .text.waitForDFLL:00000000 $t
C:\Users\Jelle\AppData\Local\Temp\ccRxPJuc.s:20     .text.waitForDFLL:00000000 waitForDFLL
C:\Users\Jelle\AppData\Local\Temp\ccRxPJuc.s:31     .text.waitForDFLL:0000000c $d
C:\Users\Jelle\AppData\Local\Temp\ccRxPJuc.s:34     .text.waitForPLL:00000000 $t
C:\Users\Jelle\AppData\Local\Temp\ccRxPJuc.s:39     .text.waitForPLL:00000000 waitForPLL
C:\Users\Jelle\AppData\Local\Temp\ccRxPJuc.s:51     .text.waitForPLL:0000000c $d
C:\Users\Jelle\AppData\Local\Temp\ccRxPJuc.s:54     .text.board_init:00000000 $t
C:\Users\Jelle\AppData\Local\Temp\ccRxPJuc.s:59     .text.board_init:00000000 board_init
C:\Users\Jelle\AppData\Local\Temp\ccRxPJuc.s:155    .text.board_init:000000b8 $d

UNDEFINED SYMBOLS
waitForSync
SystemCoreClock
