   1              		.cpu cortex-m0plus
   2              		.fpu softvfp
   3              		.eabi_attribute 20, 1
   4              		.eabi_attribute 21, 1
   5              		.eabi_attribute 23, 3
   6              		.eabi_attribute 24, 1
   7              		.eabi_attribute 25, 1
   8              		.eabi_attribute 26, 1
   9              		.eabi_attribute 30, 4
  10              		.eabi_attribute 34, 0
  11              		.eabi_attribute 18, 4
  12              		.code	16
  13              		.file	"mmcbbp.c"
  14              		.global	__aeabi_uidiv
  15              		.section	.text.setBaud,"ax",%progbits
  16              		.align	1
  17              		.global	setBaud
  18              		.code	16
  19              		.thumb_func
  21              	setBaud:
  22 0000 38B5     		push	{r3, r4, r5, lr}
  23 0002 0C4B     		ldr	r3, .L7
  24 0004 0221     		mov	r1, #2
  25 0006 1A68     		ldr	r2, [r3]
  26 0008 1D1C     		mov	r5, r3
  27 000a 8A43     		bic	r2, r1
  28 000c 1A60     		str	r2, [r3]
  29              	.L3:
  30 000e EB69     		ldr	r3, [r5, #28]
  31 0010 084C     		ldr	r4, .L7
  32 0012 9A07     		lsl	r2, r3, #30
  33 0014 FBD4     		bmi	.L3
  34 0016 4100     		lsl	r1, r0, #1
  35 0018 0748     		ldr	r0, .L7+4
  36 001a FFF7FEFF 		bl	__aeabi_uidiv
  37 001e 0138     		sub	r0, r0, #1
  38 0020 C0B2     		uxtb	r0, r0
  39 0022 2073     		strb	r0, [r4, #12]
  40 0024 2368     		ldr	r3, [r4]
  41 0026 0222     		mov	r2, #2
  42 0028 1343     		orr	r3, r2
  43 002a 2360     		str	r3, [r4]
  44              	.L5:
  45 002c EB69     		ldr	r3, [r5, #28]
  46 002e 9A07     		lsl	r2, r3, #30
  47 0030 FCD4     		bmi	.L5
  48              		@ sp needed
  49 0032 38BD     		pop	{r3, r4, r5, pc}
  50              	.L8:
  51              		.align	2
  52              	.L7:
  53 0034 00100042 		.word	1107300352
  54 0038 006CDC02 		.word	48000000
  56              		.section	.text.deselect,"ax",%progbits
  57              		.align	1
  58              		.global	deselect
  59              		.code	16
  60              		.thumb_func
  62              	deselect:
  63 0000 08B5     		push	{r3, lr}
  64 0002 0020     		mov	r0, #0
  65 0004 1221     		mov	r1, #18
  66 0006 0422     		mov	r2, #4
  67 0008 FFF7FEFF 		bl	pinConfig
  68              		@ sp needed
  69 000c 08BD     		pop	{r3, pc}
  71              		.section	.text.xfer_spi,"ax",%progbits
  72              		.align	1
  73              		.global	xfer_spi
  74              		.code	16
  75              		.thumb_func
  77              	xfer_spi:
  78 0000 064B     		ldr	r3, .L13
  79 0002 9A6A     		ldr	r2, [r3, #40]
  80 0004 520A     		lsr	r2, r2, #9
  81 0006 5202     		lsl	r2, r2, #9
  82 0008 1043     		orr	r0, r2
  83 000a 9862     		str	r0, [r3, #40]
  84              	.L12:
  85 000c 1A7E     		ldrb	r2, [r3, #24]
  86 000e 5107     		lsl	r1, r2, #29
  87 0010 FCD5     		bpl	.L12
  88 0012 024B     		ldr	r3, .L13
  89              		@ sp needed
  90 0014 986A     		ldr	r0, [r3, #40]
  91 0016 C0B2     		uxtb	r0, r0
  92 0018 7047     		bx	lr
  93              	.L14:
  94 001a C046     		.align	2
  95              	.L13:
  96 001c 00100042 		.word	1107300352
  98              		.section	.text.send_cmd,"ax",%progbits
  99              		.align	1
 100              		.code	16
 101              		.thumb_func
 103              	send_cmd:
 104 0000 38B5     		push	{r3, r4, r5, lr}
 105 0002 43B2     		sxtb	r3, r0
 106 0004 041C     		mov	r4, r0
 107 0006 0D1C     		mov	r5, r1
 108 0008 002B     		cmp	r3, #0
 109 000a 07DA     		bge	.L16
 110 000c 7720     		mov	r0, #119
 111 000e 0021     		mov	r1, #0
 112 0010 FFF7F6FF 		bl	send_cmd
 113 0014 0128     		cmp	r0, #1
 114 0016 2BD8     		bhi	.L17
 115 0018 7F23     		mov	r3, #127
 116 001a 1C40     		and	r4, r3
 117              	.L16:
 118 001c 1221     		mov	r1, #18
 119 001e 0522     		mov	r2, #5
 120 0020 0020     		mov	r0, #0
 121 0022 FFF7FEFF 		bl	pinConfig
 122 0026 201C     		mov	r0, r4
 123 0028 FFF7FEFF 		bl	xfer_spi
 124 002c 280E     		lsr	r0, r5, #24
 125 002e FFF7FEFF 		bl	xfer_spi
 126 0032 280C     		lsr	r0, r5, #16
 127 0034 C0B2     		uxtb	r0, r0
 128 0036 FFF7FEFF 		bl	xfer_spi
 129 003a 280A     		lsr	r0, r5, #8
 130 003c C0B2     		uxtb	r0, r0
 131 003e FFF7FEFF 		bl	xfer_spi
 132 0042 E8B2     		uxtb	r0, r5
 133 0044 FFF7FEFF 		bl	xfer_spi
 134 0048 402C     		cmp	r4, #64
 135 004a 04D0     		beq	.L21
 136 004c 8720     		mov	r0, #135
 137 004e 482C     		cmp	r4, #72
 138 0050 02D0     		beq	.L18
 139 0052 0120     		mov	r0, #1
 140 0054 00E0     		b	.L18
 141              	.L21:
 142 0056 9520     		mov	r0, #149
 143              	.L18:
 144 0058 FFF7FEFF 		bl	xfer_spi
 145 005c 0A24     		mov	r4, #10
 146              	.L19:
 147 005e FF20     		mov	r0, #255
 148 0060 FFF7FEFF 		bl	xfer_spi
 149 0064 0306     		lsl	r3, r0, #24
 150 0066 03D5     		bpl	.L17
 151 0068 013C     		sub	r4, r4, #1
 152 006a E4B2     		uxtb	r4, r4
 153 006c 002C     		cmp	r4, #0
 154 006e F6D1     		bne	.L19
 155              	.L17:
 156              		@ sp needed
 157 0070 38BD     		pop	{r3, r4, r5, pc}
 159              		.section	.text.disk_initialize,"ax",%progbits
 160              		.align	1
 161              		.global	disk_initialize
 162              		.code	16
 163              		.thumb_func
 165              	disk_initialize:
 166 0000 73B5     		push	{r0, r1, r4, r5, r6, lr}
 167 0002 FFF7FEFF 		bl	deselect
 168 0006 5948     		ldr	r0, .L69
 169 0008 FFF7FEFF 		bl	pinMux
 170 000c 0120     		mov	r0, #1
 171 000e 4042     		neg	r0, r0
 172 0010 FFF7FEFF 		bl	pinMux
 173 0014 5648     		ldr	r0, .L69+4
 174 0016 FFF7FEFF 		bl	pinMux
 175 001a 5648     		ldr	r0, .L69+8
 176 001c FFF7FEFF 		bl	pinMux
 177 0020 1221     		mov	r1, #18
 178 0022 0422     		mov	r2, #4
 179 0024 0020     		mov	r0, #0
 180 0026 FFF7FEFF 		bl	pinConfig
 181 002a 534B     		ldr	r3, .L69+12
 182 002c 1F21     		mov	r1, #31
 183 002e DA69     		ldr	r2, [r3, #28]
 184 0030 0A43     		orr	r2, r1
 185 0032 DA61     		str	r2, [r3, #28]
 186 0034 1A6A     		ldr	r2, [r3, #32]
 187 0036 0221     		mov	r1, #2
 188 0038 0A43     		orr	r2, r1
 189 003a 1A62     		str	r2, [r3, #32]
 190 003c 4F4B     		ldr	r3, .L69+16
 191 003e 0121     		mov	r1, #1
 192 0040 1A68     		ldr	r2, [r3]
 193 0042 0A43     		orr	r2, r1
 194 0044 1A60     		str	r2, [r3]
 195              	.L27:
 196 0046 1968     		ldr	r1, [r3]
 197 0048 0122     		mov	r2, #1
 198 004a 1142     		tst	r1, r2
 199 004c FBD1     		bne	.L27
 200 004e 4B49     		ldr	r1, .L69+16
 201 0050 C969     		ldr	r1, [r1, #28]
 202 0052 1142     		tst	r1, r2
 203 0054 F7D1     		bne	.L27
 204 0056 4A4A     		ldr	r2, .L69+20
 205 0058 4021     		mov	r1, #64
 206 005a 1160     		str	r1, [r2]
 207              	.L30:
 208 005c 1168     		ldr	r1, [r2]
 209 005e 4806     		lsl	r0, r1, #25
 210 0060 FCD5     		bpl	.L30
 211 0062 484A     		ldr	r2, .L69+24
 212 0064 4848     		ldr	r0, .L69+28
 213 0066 1A60     		str	r2, [r3]
 214 0068 8022     		mov	r2, #128
 215 006a 9202     		lsl	r2, r2, #10
 216 006c 5A60     		str	r2, [r3, #4]
 217 006e FFF7FEFF 		bl	setBaud
 218 0072 6424     		mov	r4, #100
 219              	.L32:
 220 0074 FA20     		mov	r0, #250
 221 0076 013C     		sub	r4, r4, #1
 222 0078 8000     		lsl	r0, r0, #2
 223 007a E4B2     		uxtb	r4, r4
 224 007c FFF7FEFF 		bl	delayUs
 225 0080 002C     		cmp	r4, #0
 226 0082 F7D1     		bne	.L32
 227 0084 0A25     		mov	r5, #10
 228              	.L34:
 229 0086 013D     		sub	r5, r5, #1
 230 0088 FF20     		mov	r0, #255
 231 008a EDB2     		uxtb	r5, r5
 232 008c FFF7FEFF 		bl	xfer_spi
 233 0090 002D     		cmp	r5, #0
 234 0092 F8D1     		bne	.L34
 235 0094 4020     		mov	r0, #64
 236 0096 291C     		mov	r1, r5
 237 0098 FFF7FEFF 		bl	send_cmd
 238 009c 041E     		sub	r4, r0, #0
 239 009e 012C     		cmp	r4, #1
 240 00a0 01D0     		beq	.L35
 241              	.L40:
 242 00a2 0024     		mov	r4, #0
 243 00a4 4AE0     		b	.L36
 244              	.L35:
 245 00a6 D521     		mov	r1, #213
 246 00a8 4820     		mov	r0, #72
 247 00aa 4900     		lsl	r1, r1, #1
 248 00ac FFF7FEFF 		bl	send_cmd
 249 00b0 0128     		cmp	r0, #1
 250 00b2 1CD1     		bne	.L37
 251              	.L39:
 252 00b4 FF20     		mov	r0, #255
 253 00b6 FFF7FEFF 		bl	xfer_spi
 254 00ba 01AE     		add	r6, sp, #4
 255 00bc A855     		strb	r0, [r5, r6]
 256 00be 0135     		add	r5, r5, #1
 257 00c0 042D     		cmp	r5, #4
 258 00c2 F7D1     		bne	.L39
 259 00c4 B378     		ldrb	r3, [r6, #2]
 260 00c6 012B     		cmp	r3, #1
 261 00c8 EBD1     		bne	.L40
 262 00ca F378     		ldrb	r3, [r6, #3]
 263 00cc AA2B     		cmp	r3, #170
 264 00ce E8D1     		bne	.L40
 265 00d0 2E4C     		ldr	r4, .L69+32
 266              	.L41:
 267 00d2 8021     		mov	r1, #128
 268 00d4 C905     		lsl	r1, r1, #23
 269 00d6 E920     		mov	r0, #233
 270 00d8 FFF7FEFF 		bl	send_cmd
 271 00dc 011E     		sub	r1, r0, #0
 272 00de 1DD0     		beq	.L67
 273 00e0 6420     		mov	r0, #100
 274 00e2 013C     		sub	r4, r4, #1
 275 00e4 FFF7FEFF 		bl	delayUs
 276 00e8 002C     		cmp	r4, #0
 277 00ea F2D1     		bne	.L41
 278 00ec D9E7     		b	.L40
 279              	.L37:
 280 00ee E920     		mov	r0, #233
 281 00f0 291C     		mov	r1, r5
 282 00f2 FFF7FEFF 		bl	send_cmd
 283 00f6 4126     		mov	r6, #65
 284 00f8 0128     		cmp	r0, #1
 285 00fa 01D8     		bhi	.L45
 286 00fc 0224     		mov	r4, #2
 287 00fe E926     		mov	r6, #233
 288              	.L45:
 289 0100 224D     		ldr	r5, .L69+32
 290              	.L46:
 291 0102 301C     		mov	r0, r6
 292 0104 0021     		mov	r1, #0
 293 0106 FFF7FEFF 		bl	send_cmd
 294 010a 0028     		cmp	r0, #0
 295 010c 23D0     		beq	.L68
 296 010e 6420     		mov	r0, #100
 297 0110 013D     		sub	r5, r5, #1
 298 0112 FFF7FEFF 		bl	delayUs
 299 0116 002D     		cmp	r5, #0
 300 0118 F3D1     		bne	.L46
 301 011a C2E7     		b	.L40
 302              	.L67:
 303 011c 7A20     		mov	r0, #122
 304 011e FFF7FEFF 		bl	send_cmd
 305 0122 041E     		sub	r4, r0, #0
 306 0124 BDD1     		bne	.L40
 307              	.L50:
 308 0126 FF20     		mov	r0, #255
 309 0128 FFF7FEFF 		bl	xfer_spi
 310 012c 3055     		strb	r0, [r6, r4]
 311 012e 0134     		add	r4, r4, #1
 312 0130 042C     		cmp	r4, #4
 313 0132 F8D1     		bne	.L50
 314 0134 3378     		ldrb	r3, [r6]
 315 0136 5A06     		lsl	r2, r3, #25
 316 0138 00D5     		bpl	.L36
 317 013a 0C24     		mov	r4, #12
 318              	.L36:
 319 013c 144B     		ldr	r3, .L69+36
 320 013e 1C70     		strb	r4, [r3]
 321 0140 FFF7FEFF 		bl	deselect
 322 0144 002C     		cmp	r4, #0
 323 0146 02D0     		beq	.L49
 324 0148 1248     		ldr	r0, .L69+40
 325 014a FFF7FEFF 		bl	setBaud
 326              	.L49:
 327 014e 6042     		neg	r0, r4
 328 0150 6041     		adc	r0, r0, r4
 329 0152 C0B2     		uxtb	r0, r0
 330              		@ sp needed
 331 0154 76BD     		pop	{r1, r2, r4, r5, r6, pc}
 332              	.L68:
 333 0156 8021     		mov	r1, #128
 334 0158 5020     		mov	r0, #80
 335 015a 8900     		lsl	r1, r1, #2
 336 015c FFF7FEFF 		bl	send_cmd
 337 0160 4342     		neg	r3, r0
 338 0162 5841     		adc	r0, r0, r3
 339 0164 4042     		neg	r0, r0
 340 0166 0440     		and	r4, r0
 341 0168 E8E7     		b	.L36
 342              	.L70:
 343 016a C046     		.align	2
 344              	.L69:
 345 016c 03000C00 		.word	786435
 346 0170 03002A00 		.word	2752515
 347 0174 03002B00 		.word	2818051
 348 0178 00040040 		.word	1073742848
 349 017c 00100042 		.word	1107300352
 350 0180 D8180040 		.word	1073748184
 351 0184 0C000100 		.word	65548
 352 0188 90D00300 		.word	250000
 353 018c 10270000 		.word	10000
 354 0190 00000000 		.word	.LANCHOR0
 355 0194 808D5B00 		.word	6000000
 357              		.section	.text.disk_readp,"ax",%progbits
 358              		.align	1
 359              		.global	disk_readp
 360              		.code	16
 361              		.thumb_func
 363              	disk_readp:
 364 0000 F8B5     		push	{r3, r4, r5, r6, r7, lr}
 365 0002 1E1C     		mov	r6, r3
 366 0004 1B4B     		ldr	r3, .L93
 367 0006 071C     		mov	r7, r0
 368 0008 1B78     		ldrb	r3, [r3]
 369 000a 141C     		mov	r4, r2
 370 000c 1A07     		lsl	r2, r3, #28
 371 000e 00D4     		bmi	.L72
 372 0010 4902     		lsl	r1, r1, #9
 373              	.L72:
 374 0012 5120     		mov	r0, #81
 375 0014 FFF7FEFF 		bl	send_cmd
 376 0018 0028     		cmp	r0, #0
 377 001a 01D0     		beq	.L73
 378              	.L76:
 379 001c 0125     		mov	r5, #1
 380 001e 25E0     		b	.L74
 381              	.L73:
 382 0020 154D     		ldr	r5, .L93+4
 383              	.L77:
 384 0022 FF20     		mov	r0, #255
 385 0024 FFF7FEFF 		bl	xfer_spi
 386 0028 FF28     		cmp	r0, #255
 387 002a 03D1     		bne	.L75
 388 002c 013D     		sub	r5, r5, #1
 389 002e 002D     		cmp	r5, #0
 390 0030 F7D1     		bne	.L77
 391 0032 F3E7     		b	.L76
 392              	.L75:
 393 0034 FE28     		cmp	r0, #254
 394 0036 F1D1     		bne	.L76
 395 0038 104D     		ldr	r5, .L93+8
 396 003a AD1B     		sub	r5, r5, r6
 397 003c 2D1B     		sub	r5, r5, r4
 398              	.L92:
 399 003e 002C     		cmp	r4, #0
 400 0040 01D1     		bne	.L81
 401 0042 3C1C     		mov	r4, r7
 402 0044 04E0     		b	.L79
 403              	.L81:
 404 0046 FF20     		mov	r0, #255
 405 0048 FFF7FEFF 		bl	xfer_spi
 406 004c 013C     		sub	r4, r4, #1
 407 004e F6E7     		b	.L92
 408              	.L79:
 409 0050 FF20     		mov	r0, #255
 410 0052 FFF7FEFF 		bl	xfer_spi
 411 0056 BB19     		add	r3, r7, r6
 412 0058 2070     		strb	r0, [r4]
 413 005a 0134     		add	r4, r4, #1
 414 005c A342     		cmp	r3, r4
 415 005e F7D1     		bne	.L79
 416              	.L83:
 417 0060 FF20     		mov	r0, #255
 418 0062 013D     		sub	r5, r5, #1
 419 0064 FFF7FEFF 		bl	xfer_spi
 420 0068 002D     		cmp	r5, #0
 421 006a F9D1     		bne	.L83
 422              	.L74:
 423 006c FFF7FEFF 		bl	deselect
 424              		@ sp needed
 425 0070 281C     		mov	r0, r5
 426 0072 F8BD     		pop	{r3, r4, r5, r6, r7, pc}
 427              	.L94:
 428              		.align	2
 429              	.L93:
 430 0074 00000000 		.word	.LANCHOR0
 431 0078 409C0000 		.word	40000
 432 007c 02020000 		.word	514
 434              		.section	.bss.CardType,"aw",%nobits
 435              		.set	.LANCHOR0,. + 0
 438              	CardType:
 439 0000 00       		.space	1
 440              		.ident	"GCC: (GNU Tools for ARM Embedded Processors) 4.8.3 20140228 (release) [ARM/embedded-4_8-br
DEFINED SYMBOLS
                            *ABS*:00000000 mmcbbp.c
C:\Users\Jelle\AppData\Local\Temp\cc9fAX0E.s:16     .text.setBaud:00000000 $t
C:\Users\Jelle\AppData\Local\Temp\cc9fAX0E.s:21     .text.setBaud:00000000 setBaud
C:\Users\Jelle\AppData\Local\Temp\cc9fAX0E.s:53     .text.setBaud:00000034 $d
C:\Users\Jelle\AppData\Local\Temp\cc9fAX0E.s:57     .text.deselect:00000000 $t
C:\Users\Jelle\AppData\Local\Temp\cc9fAX0E.s:62     .text.deselect:00000000 deselect
C:\Users\Jelle\AppData\Local\Temp\cc9fAX0E.s:72     .text.xfer_spi:00000000 $t
C:\Users\Jelle\AppData\Local\Temp\cc9fAX0E.s:77     .text.xfer_spi:00000000 xfer_spi
C:\Users\Jelle\AppData\Local\Temp\cc9fAX0E.s:96     .text.xfer_spi:0000001c $d
C:\Users\Jelle\AppData\Local\Temp\cc9fAX0E.s:99     .text.send_cmd:00000000 $t
C:\Users\Jelle\AppData\Local\Temp\cc9fAX0E.s:103    .text.send_cmd:00000000 send_cmd
C:\Users\Jelle\AppData\Local\Temp\cc9fAX0E.s:160    .text.disk_initialize:00000000 $t
C:\Users\Jelle\AppData\Local\Temp\cc9fAX0E.s:165    .text.disk_initialize:00000000 disk_initialize
C:\Users\Jelle\AppData\Local\Temp\cc9fAX0E.s:345    .text.disk_initialize:0000016c $d
C:\Users\Jelle\AppData\Local\Temp\cc9fAX0E.s:358    .text.disk_readp:00000000 $t
C:\Users\Jelle\AppData\Local\Temp\cc9fAX0E.s:363    .text.disk_readp:00000000 disk_readp
C:\Users\Jelle\AppData\Local\Temp\cc9fAX0E.s:430    .text.disk_readp:00000074 $d
C:\Users\Jelle\AppData\Local\Temp\cc9fAX0E.s:438    .bss.CardType:00000000 CardType
C:\Users\Jelle\AppData\Local\Temp\cc9fAX0E.s:439    .bss.CardType:00000000 $d

UNDEFINED SYMBOLS
__aeabi_uidiv
pinConfig
pinMux
delayUs
